target datalayout = "e-m:e-p270:32:32-p271:32:32-p272:64:64-i64:64-i128:128-f80:128-n8:16:32:64-S128"
target triple = "x86_64-pc-linux-gnu"

%struct.mbedtls_cipher_info_t = type { ptr, i32 }
%struct.mbedtls_cipher_base_t = type { i32, ptr, ptr, ptr, ptr, ptr, ptr, ptr, ptr, ptr, ptr, ptr }
%struct.mbedtls_cipher_context_t = type { ptr, i32, i32, ptr, ptr, [16 x i8], i64, [16 x i8], i64, ptr, ptr }

@mbedtls_cipher_base_lookup_table = external global [0 x ptr], align 8

; Function Attrs: inlinehint nounwind uwtable
define internal ptr @mbedtls_cipher_get_base(ptr noundef %0) #3 {
  %2 = alloca ptr, align 8
  store ptr %0, ptr %2, align 8, !tbaa !26
  %3 = load ptr, ptr %2, align 8, !tbaa !26
  %4 = getelementptr inbounds nuw %struct.mbedtls_cipher_info_t, ptr %3, i32 0, i32 1
  %5 = load i32, ptr %4, align 8
  %6 = lshr i32 %5, 26
  %7 = and i32 %6, 31
  %8 = zext i32 %7 to i64
  %9 = getelementptr inbounds nuw [0 x ptr], ptr @mbedtls_cipher_base_lookup_table, i64 0, i64 %8
  %10 = load ptr, ptr %9, align 8, !tbaa !27
  ret ptr %10
}

; Function Attrs: inlinehint nounwind uwtable
define internal i64 @mbedtls_cipher_info_get_key_bitlen(ptr noundef %0) #3 {
  %2 = alloca i64, align 8
  %3 = alloca ptr, align 8
  store ptr %0, ptr %3, align 8, !tbaa !26
  %4 = load ptr, ptr %3, align 8, !tbaa !26
  %5 = icmp eq ptr %4, null
  br i1 %5, label %6, label %7

6:                                                ; preds = %1
  store i64 0, ptr %2, align 8
  br label %15

7:                                                ; preds = %1
  %8 = load ptr, ptr %3, align 8, !tbaa !26
  %9 = getelementptr inbounds nuw %struct.mbedtls_cipher_info_t, ptr %8, i32 0, i32 1
  %10 = load i32, ptr %9, align 8
  %11 = lshr i32 %10, 8
  %12 = and i32 %11, 15
  %13 = zext i32 %12 to i64
  %14 = shl i64 %13, 6
  store i64 %14, ptr %2, align 8
  br label %15

15:                                               ; preds = %7, %6
  %16 = load i64, ptr %2, align 8
  ret i64 %16
}

; Function Attrs: nounwind uwtable
define hidden i32 @mbedtls_cipher_setkey(ptr noundef %0, ptr noundef %1, i32 noundef %2, i32 noundef %3) #0 {
  %5 = alloca i32, align 4
  %6 = alloca ptr, align 8
  %7 = alloca ptr, align 8
  %8 = alloca i32, align 4
  %9 = alloca i32, align 4
  store ptr %0, ptr %6, align 8, !tbaa !29
  store ptr %1, ptr %7, align 8, !tbaa !18
  store i32 %2, ptr %8, align 4, !tbaa !3
  store i32 %3, ptr %9, align 4, !tbaa !3
  %10 = load i32, ptr %9, align 4, !tbaa !3
  %11 = icmp ne i32 %10, 1
  br i1 %11, label %12, label %16

12:                                               ; preds = %4
  %13 = load i32, ptr %9, align 4, !tbaa !3
  %14 = icmp ne i32 %13, 0
  br i1 %14, label %15, label %16

15:                                               ; preds = %12
  store i32 -24832, ptr %5, align 4
  br label %111

16:                                               ; preds = %12, %4
  %17 = load ptr, ptr %6, align 8, !tbaa !29
  %18 = getelementptr inbounds nuw %struct.mbedtls_cipher_context_t, ptr %17, i32 0, i32 0
  %19 = load ptr, ptr %18, align 8, !tbaa !36
  %20 = icmp eq ptr %19, null
  br i1 %20, label %21, label %22

21:                                               ; preds = %16
  store i32 -24832, ptr %5, align 4
  br label %111

22:                                               ; preds = %16
  %23 = load ptr, ptr %6, align 8, !tbaa !29
  %24 = getelementptr inbounds nuw %struct.mbedtls_cipher_context_t, ptr %23, i32 0, i32 0
  %25 = load ptr, ptr %24, align 8, !tbaa !36
  %26 = getelementptr inbounds nuw %struct.mbedtls_cipher_info_t, ptr %25, i32 0, i32 1
  %27 = load i32, ptr %26, align 8
  %28 = lshr i32 %27, 24
  %29 = and i32 %28, 3
  %30 = and i32 %29, 2
  %31 = icmp eq i32 %30, 0
  br i1 %31, label %32, label %41

32:                                               ; preds = %22
  %33 = load ptr, ptr %6, align 8, !tbaa !29
  %34 = getelementptr inbounds nuw %struct.mbedtls_cipher_context_t, ptr %33, i32 0, i32 0
  %35 = load ptr, ptr %34, align 8, !tbaa !36
  %36 = call i64 @mbedtls_cipher_info_get_key_bitlen(ptr noundef %35)
  %37 = trunc i64 %36 to i32
  %38 = load i32, ptr %8, align 4, !tbaa !3
  %39 = icmp ne i32 %37, %38
  br i1 %39, label %40, label %41

40:                                               ; preds = %32
  store i32 -24832, ptr %5, align 4
  br label %111

41:                                               ; preds = %32, %22
  %42 = load i32, ptr %8, align 4, !tbaa !3
  %43 = load ptr, ptr %6, align 8, !tbaa !29
  %44 = getelementptr inbounds nuw %struct.mbedtls_cipher_context_t, ptr %43, i32 0, i32 1
  store i32 %42, ptr %44, align 8, !tbaa !39
  %45 = load i32, ptr %9, align 4, !tbaa !3
  %46 = load ptr, ptr %6, align 8, !tbaa !29
  %47 = getelementptr inbounds nuw %struct.mbedtls_cipher_context_t, ptr %46, i32 0, i32 2
  store i32 %45, ptr %47, align 4, !tbaa !40
  %48 = load i32, ptr %9, align 4, !tbaa !3
  %49 = icmp eq i32 1, %48
  br i1 %49, label %77, label %50

50:                                               ; preds = %41
  %51 = load ptr, ptr %6, align 8, !tbaa !29
  %52 = getelementptr inbounds nuw %struct.mbedtls_cipher_context_t, ptr %51, i32 0, i32 0
  %53 = load ptr, ptr %52, align 8, !tbaa !36
  %54 = getelementptr inbounds nuw %struct.mbedtls_cipher_info_t, ptr %53, i32 0, i32 1
  %55 = load i32, ptr %54, align 8
  %56 = lshr i32 %55, 12
  %57 = and i32 %56, 15
  %58 = icmp eq i32 3, %57
  br i1 %58, label %77, label %59

59:                                               ; preds = %50
  %60 = load ptr, ptr %6, align 8, !tbaa !29
  %61 = getelementptr inbounds nuw %struct.mbedtls_cipher_context_t, ptr %60, i32 0, i32 0
  %62 = load ptr, ptr %61, align 8, !tbaa !36
  %63 = getelementptr inbounds nuw %struct.mbedtls_cipher_info_t, ptr %62, i32 0, i32 1
  %64 = load i32, ptr %63, align 8
  %65 = lshr i32 %64, 12
  %66 = and i32 %65, 15
  %67 = icmp eq i32 4, %66
  br i1 %67, label %77, label %68

68:                                               ; preds = %59
  %69 = load ptr, ptr %6, align 8, !tbaa !29
  %70 = getelementptr inbounds nuw %struct.mbedtls_cipher_context_t, ptr %69, i32 0, i32 0
  %71 = load ptr, ptr %70, align 8, !tbaa !36
  %72 = getelementptr inbounds nuw %struct.mbedtls_cipher_info_t, ptr %71, i32 0, i32 1
  %73 = load i32, ptr %72, align 8
  %74 = lshr i32 %73, 12
  %75 = and i32 %74, 15
  %76 = icmp eq i32 5, %75
  br i1 %76, label %77, label %92

77:                                               ; preds = %68, %59, %50, %41
  %78 = load ptr, ptr %6, align 8, !tbaa !29
  %79 = getelementptr inbounds nuw %struct.mbedtls_cipher_context_t, ptr %78, i32 0, i32 0
  %80 = load ptr, ptr %79, align 8, !tbaa !36
  %81 = call ptr @mbedtls_cipher_get_base(ptr noundef %80)
  %82 = getelementptr inbounds nuw %struct.mbedtls_cipher_base_t, ptr %81, i32 0, i32 8
  %83 = load ptr, ptr %82, align 8, !tbaa !41
  %84 = load ptr, ptr %6, align 8, !tbaa !29
  %85 = getelementptr inbounds nuw %struct.mbedtls_cipher_context_t, ptr %84, i32 0, i32 9
  %86 = load ptr, ptr %85, align 8, !tbaa !35
  %87 = load ptr, ptr %7, align 8, !tbaa !18
  %88 = load ptr, ptr %6, align 8, !tbaa !29
  %89 = getelementptr inbounds nuw %struct.mbedtls_cipher_context_t, ptr %88, i32 0, i32 1
  %90 = load i32, ptr %89, align 8, !tbaa !39
  %91 = call i32 %83(ptr noundef %86, ptr noundef %87, i32 noundef %90)
  store i32 %91, ptr %5, align 4
  br label %111

92:                                               ; preds = %68
  %93 = load i32, ptr %9, align 4, !tbaa !3
  %94 = icmp eq i32 0, %93
  br i1 %94, label %95, label %110

95:                                               ; preds = %92
  %96 = load ptr, ptr %6, align 8, !tbaa !29
  %97 = getelementptr inbounds nuw %struct.mbedtls_cipher_context_t, ptr %96, i32 0, i32 0
  %98 = load ptr, ptr %97, align 8, !tbaa !36
  %99 = call ptr @mbedtls_cipher_get_base(ptr noundef %98)
  %100 = getelementptr inbounds nuw %struct.mbedtls_cipher_base_t, ptr %99, i32 0, i32 9
  %101 = load ptr, ptr %100, align 8, !tbaa !42
  %102 = load ptr, ptr %6, align 8, !tbaa !29
  %103 = getelementptr inbounds nuw %struct.mbedtls_cipher_context_t, ptr %102, i32 0, i32 9
  %104 = load ptr, ptr %103, align 8, !tbaa !35
  %105 = load ptr, ptr %7, align 8, !tbaa !18
  %106 = load ptr, ptr %6, align 8, !tbaa !29
  %107 = getelementptr inbounds nuw %struct.mbedtls_cipher_context_t, ptr %106, i32 0, i32 1
  %108 = load i32, ptr %107, align 8, !tbaa !39
  %109 = call i32 %101(ptr noundef %104, ptr noundef %105, i32 noundef %108)
  store i32 %109, ptr %5, align 4
  br label %111

110:                                              ; preds = %92
  store i32 -24832, ptr %5, align 4
  br label %111

111:                                              ; preds = %110, %95, %77, %40, %21, %15
  %112 = load i32, ptr %5, align 4
  ret i32 %112
}