; Function Attrs: nounwind uwtable
define hidden i32 @mbedtls_cipher_setkey(ptr noundef captures(none) %0, ptr noundef %1, i32 noundef %2, i32 noundef %3) local_unnamed_addr #8 {
  %or.cond = icmp ugt i32 %3, 1
  br i1 %or.cond, label %32, label %5

5:                                                ; preds = %4
  %6 = load ptr, ptr %0, align 8, !tbaa !29
  %7 = icmp eq ptr %6, null
  br i1 %7, label %32, label %8

8:                                                ; preds = %5
  %9 = getelementptr inbounds nuw i8, ptr %6, i64 8
  %10 = load i32, ptr %9, align 8
  %11 = and i32 %10, 33554432
  %12 = icmp eq i32 %11, 0
  br i1 %12, label %mbedtls_cipher_info_get_key_bitlen.exit, label %15

mbedtls_cipher_info_get_key_bitlen.exit:          ; preds = %8
  %13 = lshr i32 %10, 2
  %14 = and i32 %13, 960
  %.not = icmp eq i32 %2, %14
  br i1 %.not, label %15, label %32

15:                                               ; preds = %mbedtls_cipher_info_get_key_bitlen.exit, %8
  %16 = getelementptr inbounds nuw i8, ptr %0, i64 8
  store i32 %2, ptr %16, align 8, !tbaa !32
  %17 = getelementptr inbounds nuw i8, ptr %0, i64 12
  store i32 %3, ptr %17, align 4, !tbaa !33
  %18 = icmp eq i32 %3, 1
  %.val27.pre = load i32, ptr %9, align 8
  br i1 %18, label %.sink.split, label %19

19:                                               ; preds = %15
  %20 = lshr i32 %.val27.pre, 12
  %21 = and i32 %20, 15
  %.off = add nsw i32 %21, -3
  %switch = icmp ult i32 %.off, 3
  %spec.select = select i1 %switch, i64 64, i64 72
  br label %.sink.split

.sink.split:                                      ; preds = %19, %15
  %.sink31 = phi i64 [ 64, %15 ], [ %spec.select, %19 ]
  %22 = lshr i32 %.val27.pre, 26
  %23 = and i32 %22, 31
  %24 = zext nneg i32 %23 to i64
  %25 = getelementptr inbounds nuw [0 x ptr], ptr @mbedtls_cipher_base_lookup_table, i64 0, i64 %24
  %26 = load ptr, ptr %25, align 8, !tbaa !19
  %27 = getelementptr inbounds nuw i8, ptr %26, i64 %.sink31
  %28 = load ptr, ptr %27, align 8, !tbaa !34
  %29 = getelementptr inbounds nuw i8, ptr %0, i64 80
  %30 = load ptr, ptr %29, align 8, !tbaa !28
  %31 = tail call i32 %28(ptr noundef %30, ptr noundef %1, i32 noundef %2) #15
  br label %32

32:                                               ; preds = %.sink.split, %mbedtls_cipher_info_get_key_bitlen.exit, %5, %4
  %.0 = phi i32 [ -24832, %4 ], [ -24832, %5 ], [ -24832, %mbedtls_cipher_info_get_key_bitlen.exit ], [ %31, %.sink.split ]
  ret i32 %.0
}